target datalayout = "e-m:e-p270:32:32-p271:32:32-p272:64:64-i64:64-i128:128-f80:128-n8:16:32:64-S128"
target triple = "x86_64-pc-linux-gnu"

%struct.Vec_Wrd_t_ = type { i32, i32, ptr }

; Function Attrs: nounwind uwtable
define internal void @Abc_TtSharp(ptr noundef %0, ptr noundef %1, ptr noundef %2, i32 noundef %3) #0 {
  %5 = alloca ptr, align 8
  %6 = alloca ptr, align 8
  %7 = alloca ptr, align 8
  %8 = alloca i32, align 4
  %9 = alloca i32, align 4
  store ptr %0, ptr %5, align 8
  store ptr %1, ptr %6, align 8
  store ptr %2, ptr %7, align 8
  store i32 %3, ptr %8, align 4
  store i32 0, ptr %9, align 4
  br label %10

10:                                               ; preds = %31, %4
  %11 = load i32, ptr %9, align 4
  %12 = load i32, ptr %8, align 4
  %13 = icmp slt i32 %11, %12
  br i1 %13, label %14, label %34

14:                                               ; preds = %10
  %15 = load ptr, ptr %6, align 8
  %16 = load i32, ptr %9, align 4
  %17 = sext i32 %16 to i64
  %18 = getelementptr inbounds i64, ptr %15, i64 %17
  %19 = load i64, ptr %18, align 8
  %20 = load ptr, ptr %7, align 8
  %21 = load i32, ptr %9, align 4
  %22 = sext i32 %21 to i64
  %23 = getelementptr inbounds i64, ptr %20, i64 %22
  %24 = load i64, ptr %23, align 8
  %25 = xor i64 %24, -1
  %26 = and i64 %19, %25
  %27 = load ptr, ptr %5, align 8
  %28 = load i32, ptr %9, align 4
  %29 = sext i32 %28 to i64
  %30 = getelementptr inbounds i64, ptr %27, i64 %29
  store i64 %26, ptr %30, align 8
  br label %31

31:                                               ; preds = %14
  %32 = load i32, ptr %9, align 4
  %33 = add nsw i32 %32, 1
  store i32 %33, ptr %9, align 4
  br label %10, !llvm.loop !19

34:                                               ; preds = %10
  ret void
}

; Function Attrs: nounwind uwtable
define internal void @Abc_TtOr(ptr noundef %0, ptr noundef %1, ptr noundef %2, i32 noundef %3) #0 {
  %5 = alloca ptr, align 8
  %6 = alloca ptr, align 8
  %7 = alloca ptr, align 8
  %8 = alloca i32, align 4
  %9 = alloca i32, align 4
  store ptr %0, ptr %5, align 8
  store ptr %1, ptr %6, align 8
  store ptr %2, ptr %7, align 8
  store i32 %3, ptr %8, align 4
  store i32 0, ptr %9, align 4
  br label %10

10:                                               ; preds = %30, %4
  %11 = load i32, ptr %9, align 4
  %12 = load i32, ptr %8, align 4
  %13 = icmp slt i32 %11, %12
  br i1 %13, label %14, label %33

14:                                               ; preds = %10
  %15 = load ptr, ptr %6, align 8
  %16 = load i32, ptr %9, align 4
  %17 = sext i32 %16 to i64
  %18 = getelementptr inbounds i64, ptr %15, i64 %17
  %19 = load i64, ptr %18, align 8
  %20 = load ptr, ptr %7, align 8
  %21 = load i32, ptr %9, align 4
  %22 = sext i32 %21 to i64
  %23 = getelementptr inbounds i64, ptr %20, i64 %22
  %24 = load i64, ptr %23, align 8
  %25 = or i64 %19, %24
  %26 = load ptr, ptr %5, align 8
  %27 = load i32, ptr %9, align 4
  %28 = sext i32 %27 to i64
  %29 = getelementptr inbounds i64, ptr %26, i64 %28
  store i64 %25, ptr %29, align 8
  br label %30

30:                                               ; preds = %14
  %31 = load i32, ptr %9, align 4
  %32 = add nsw i32 %31, 1
  store i32 %32, ptr %9, align 4
  br label %10, !llvm.loop !18

33:                                               ; preds = %10
  ret void
}

; Function Attrs: nounwind uwtable
define internal ptr @Vec_WrdEntryP(ptr noundef %0, i32 noundef %1) #0 {
  %3 = alloca ptr, align 8
  %4 = alloca i32, align 4
  store ptr %0, ptr %3, align 8
  store i32 %1, ptr %4, align 4
  %5 = load ptr, ptr %3, align 8
  %6 = getelementptr inbounds %struct.Vec_Wrd_t_, ptr %5, i32 0, i32 2
  %7 = load ptr, ptr %6, align 8
  %8 = load i32, ptr %4, align 4
  %9 = sext i32 %8 to i64
  %10 = getelementptr inbounds i64, ptr %7, i64 %9
  ret ptr %10
}

; Function Attrs: nounwind uwtable
define internal i32 @Abc_Truth6WordNum(i32 noundef %0) #0 {
  %2 = alloca i32, align 4
  store i32 %0, ptr %2, align 4
  %3 = load i32, ptr %2, align 4
  %4 = icmp sle i32 %3, 6
  br i1 %4, label %5, label %6

5:                                                ; preds = %1
  br label %10

6:                                                ; preds = %1
  %7 = load i32, ptr %2, align 4
  %8 = sub nsw i32 %7, 6
  %9 = shl i32 1, %8
  br label %10

10:                                               ; preds = %6, %5
  %11 = phi i32 [ 1, %5 ], [ %9, %6 ]
  ret i32 %11
}

; Function Attrs: nounwind uwtable
define i32 @Gia_ManCountBidec(ptr noundef %0, i32 noundef %1, i32 noundef %2) #0 {
  %4 = alloca ptr, align 8
  %5 = alloca i32, align 4
  %6 = alloca i32, align 4
  %7 = alloca i32, align 4
  %8 = alloca i32, align 4
  %9 = alloca [2 x ptr], align 16
  store ptr %0, ptr %4, align 8
  store i32 %1, ptr %5, align 4
  store i32 %2, ptr %6, align 4
  %10 = load i32, ptr %5, align 4
  %11 = call i32 @Abc_Truth6WordNum(i32 noundef %10)
  store i32 %11, ptr %8, align 4
  %12 = getelementptr inbounds [2 x ptr], ptr %9, i64 0, i64 0
  %13 = load ptr, ptr %4, align 8
  %14 = load i32, ptr %8, align 4
  %15 = mul nsw i32 0, %14
  %16 = call ptr @Vec_WrdEntryP(ptr noundef %13, i32 noundef %15)
  store ptr %16, ptr %12, align 8
  %17 = getelementptr inbounds ptr, ptr %12, i64 1
  %18 = load ptr, ptr %4, align 8
  %19 = load i32, ptr %8, align 4
  %20 = mul nsw i32 1, %19
  %21 = call ptr @Vec_WrdEntryP(ptr noundef %18, i32 noundef %20)
  store ptr %21, ptr %17, align 8
  %22 = getelementptr inbounds [2 x ptr], ptr %9, i64 0, i64 0
  %23 = load ptr, ptr %22, align 16
  %24 = getelementptr inbounds [2 x ptr], ptr %9, i64 0, i64 0
  %25 = load ptr, ptr %24, align 16
  %26 = getelementptr inbounds [2 x ptr], ptr %9, i64 0, i64 1
  %27 = load ptr, ptr %26, align 8
  %28 = load i32, ptr %8, align 4
  call void @Abc_TtOr(ptr noundef %23, ptr noundef %25, ptr noundef %27, i32 noundef %28)
  %29 = getelementptr inbounds [2 x ptr], ptr %9, i64 0, i64 1
  %30 = load ptr, ptr %29, align 8
  %31 = getelementptr inbounds [2 x ptr], ptr %9, i64 0, i64 0
  %32 = load ptr, ptr %31, align 16
  %33 = load i32, ptr %5, align 4
  %34 = load i32, ptr %6, align 4
  %35 = call i32 @Bdc_ManBidecNodeNum(ptr noundef %30, ptr noundef %32, i32 noundef %33, i32 noundef %34)
  store i32 %35, ptr %7, align 4
  %36 = getelementptr inbounds [2 x ptr], ptr %9, i64 0, i64 0
  %37 = load ptr, ptr %36, align 16
  %38 = getelementptr inbounds [2 x ptr], ptr %9, i64 0, i64 0
  %39 = load ptr, ptr %38, align 16
  %40 = getelementptr inbounds [2 x ptr], ptr %9, i64 0, i64 1
  %41 = load ptr, ptr %40, align 8
  %42 = load i32, ptr %8, align 4
  call void @Abc_TtSharp(ptr noundef %37, ptr noundef %39, ptr noundef %41, i32 noundef %42)
  %43 = load i32, ptr %7, align 4
  ret i32 %43
}