; Function Attrs: nounwind uwtable
define i32 @Gia_ManCountBidec(ptr noundef readonly captures(none) %0, i32 noundef %1, i32 noundef %2) local_unnamed_addr #2 {
  %4 = icmp slt i32 %1, 7
  %5 = add nsw i32 %1, -6
  %6 = shl nuw i32 1, %5
  %7 = select i1 %4, i32 1, i32 %6
  %8 = getelementptr i8, ptr %0, i64 8
  %.val15 = load ptr, ptr %8, align 8
  %9 = sext i32 %7 to i64
  %10 = getelementptr inbounds i64, ptr %.val15, i64 %9
  %11 = icmp sgt i32 %7, 0
  br i1 %11, label %.lr.ph.preheader.i, label %Abc_TtOr.exit.thread

Abc_TtOr.exit.thread:                             ; preds = %3
  %12 = tail call i32 @Bdc_ManBidecNodeNum(ptr noundef nonnull %10, ptr noundef %.val15, i32 noundef %1, i32 noundef %2) #14
  br label %Abc_TtSharp.exit

.lr.ph.preheader.i:                               ; preds = %3
  %wide.trip.count.i = zext nneg i32 %7 to i64
  br label %.lr.ph.i

.lr.ph.i:                                         ; preds = %.lr.ph.i, %.lr.ph.preheader.i
  %indvars.iv.i = phi i64 [ 0, %.lr.ph.preheader.i ], [ %indvars.iv.next.i, %.lr.ph.i ]
  %13 = getelementptr inbounds nuw i64, ptr %.val15, i64 %indvars.iv.i
  %14 = load i64, ptr %13, align 8
  %15 = getelementptr inbounds nuw i64, ptr %10, i64 %indvars.iv.i
  %16 = load i64, ptr %15, align 8
  %17 = or i64 %16, %14
  store i64 %17, ptr %13, align 8
  %indvars.iv.next.i = add nuw nsw i64 %indvars.iv.i, 1
  %exitcond.not.i = icmp eq i64 %indvars.iv.next.i, %wide.trip.count.i
  br i1 %exitcond.not.i, label %Abc_TtOr.exit, label %.lr.ph.i, !llvm.loop !16

Abc_TtOr.exit:                                    ; preds = %.lr.ph.i
  %18 = tail call i32 @Bdc_ManBidecNodeNum(ptr noundef nonnull %10, ptr noundef nonnull %.val15, i32 noundef %1, i32 noundef %2) #14
  br label %.lr.ph.i18

.lr.ph.i18:                                       ; preds = %.lr.ph.i18, %Abc_TtOr.exit
  %indvars.iv.i19 = phi i64 [ 0, %Abc_TtOr.exit ], [ %indvars.iv.next.i20, %.lr.ph.i18 ]
  %19 = getelementptr inbounds nuw i64, ptr %.val15, i64 %indvars.iv.i19
  %20 = load i64, ptr %19, align 8
  %21 = getelementptr inbounds nuw i64, ptr %10, i64 %indvars.iv.i19
  %22 = load i64, ptr %21, align 8
  %23 = xor i64 %22, -1
  %24 = and i64 %20, %23
  store i64 %24, ptr %19, align 8
  %indvars.iv.next.i20 = add nuw nsw i64 %indvars.iv.i19, 1
  %exitcond.not.i21 = icmp eq i64 %indvars.iv.next.i20, %wide.trip.count.i
  br i1 %exitcond.not.i21, label %Abc_TtSharp.exit, label %.lr.ph.i18, !llvm.loop !17

Abc_TtSharp.exit:                                 ; preds = %.lr.ph.i18, %Abc_TtOr.exit.thread
  %25 = phi i32 [ %12, %Abc_TtOr.exit.thread ], [ %18, %.lr.ph.i18 ]
  ret i32 %25
}